target datalayout = "e-m:e-p270:32:32-p271:32:32-p272:64:64-i64:64-i128:128-f80:128-n8:16:32:64-S128"
target triple = "x86_64-pc-linux-gnu"

%"class.std::__cxx11::basic_string" = type { %"struct.std::__cxx11::basic_string<char>::_Alloc_hider", i64, %union.anon }
%"struct.std::__cxx11::basic_string<char>::_Alloc_hider" = type { ptr }
%union.anon = type { i64, [8 x i8] }
%"struct.rocksdb::MutableCFOptions" = type { i64, i32, i64, double, i8, i64, i64, i8, i64, %"class.std::shared_ptr", double, i8, %"class.std::shared_ptr.13", i64, i64, i32, i32, i32, i64, i64, i32, i64, double, i64, i64, %"class.std::vector.16", %"struct.rocksdb::CompactionOptionsFIFO", %"class.rocksdb::CompactionOptionsUniversal", i64, i64, i8, i64, i64, i8, i8, double, double, i64, i32, i8, i64, i8, i8, i8, i8, [4 x i8], %"struct.rocksdb::CompressionOptions", %"struct.rocksdb::CompressionOptions", i8, i8, i32, i8, i8, i64, %"class.std::vector.26", i32, i32, i32, %"class.std::vector.31" }
%"class.std::shared_ptr" = type { %"class.std::__shared_ptr" }
%"class.std::__shared_ptr" = type { ptr, %"class.std::__shared_count" }
%"class.std::__shared_count" = type { ptr }
%"class.std::shared_ptr.13" = type { %"class.std::__shared_ptr.14" }
%"class.std::__shared_ptr.14" = type { ptr, %"class.std::__shared_count" }
%"class.std::vector.16" = type { %"struct.std::_Vector_base.17" }
%"struct.std::_Vector_base.17" = type { %"struct.std::_Vector_base<int, std::allocator<int>>::_Vector_impl" }
%"struct.std::_Vector_base<int, std::allocator<int>>::_Vector_impl" = type { %"struct.std::_Vector_base<int, std::allocator<int>>::_Vector_impl_data" }
%"struct.std::_Vector_base<int, std::allocator<int>>::_Vector_impl_data" = type { ptr, ptr, ptr }
%"struct.rocksdb::CompactionOptionsFIFO" = type { i64, i8, i64, %"class.std::vector.21" }
%"class.std::vector.21" = type { %"struct.std::_Vector_base.22" }
%"struct.std::_Vector_base.22" = type { %"struct.std::_Vector_base<rocksdb::FileTemperatureAge, std::allocator<rocksdb::FileTemperatureAge>>::_Vector_impl" }
%"struct.std::_Vector_base<rocksdb::FileTemperatureAge, std::allocator<rocksdb::FileTemperatureAge>>::_Vector_impl" = type { %"struct.std::_Vector_base<rocksdb::FileTemperatureAge, std::allocator<rocksdb::FileTemperatureAge>>::_Vector_impl_data" }
%"struct.std::_Vector_base<rocksdb::FileTemperatureAge, std::allocator<rocksdb::FileTemperatureAge>>::_Vector_impl_data" = type { ptr, ptr, ptr }
%"class.rocksdb::CompactionOptionsUniversal" = type <{ i32, i32, i32, i32, i32, i32, i32, i8, i8, [2 x i8] }>
%"struct.rocksdb::CompressionOptions" = type <{ i32, i32, i32, i32, i32, i32, i8, [7 x i8], i64, i8, [3 x i8], i32, i8, [7 x i8] }>
%"class.std::vector.26" = type { %"struct.std::_Vector_base.27" }
%"struct.std::_Vector_base.27" = type { %"struct.std::_Vector_base<rocksdb::CompressionType, std::allocator<rocksdb::CompressionType>>::_Vector_impl" }
%"struct.std::_Vector_base<rocksdb::CompressionType, std::allocator<rocksdb::CompressionType>>::_Vector_impl" = type { %"struct.std::_Vector_base<rocksdb::CompressionType, std::allocator<rocksdb::CompressionType>>::_Vector_impl_data" }
%"struct.std::_Vector_base<rocksdb::CompressionType, std::allocator<rocksdb::CompressionType>>::_Vector_impl_data" = type { ptr, ptr, ptr }
%"class.std::vector.31" = type { %"struct.std::_Vector_base.32" }
%"struct.std::_Vector_base.32" = type { %"struct.std::_Vector_base<unsigned long, std::allocator<unsigned long>>::_Vector_impl" }
%"struct.std::_Vector_base<unsigned long, std::allocator<unsigned long>>::_Vector_impl" = type { %"struct.std::_Vector_base<unsigned long, std::allocator<unsigned long>>::_Vector_impl_data" }
%"struct.std::_Vector_base<unsigned long, std::allocator<unsigned long>>::_Vector_impl_data" = type { ptr, ptr, ptr }
%"class.rocksdb::VersionStorageInfo" = type { ptr, ptr, i32, i32, %"class.std::vector.31", %"class.rocksdb::autovector", %"class.rocksdb::FileIndexer", [8 x i8], %"class.rocksdb::Arena", i8, ptr, %"class.std::unordered_map", %"class.std::vector.61", i32, i32, double, %"class.std::vector.66", i8, %"class.std::vector.16", %"class.rocksdb::autovector.71", %"class.rocksdb::autovector.71", %"class.rocksdb::autovector.71", %"class.rocksdb::autovector.71", %"class.rocksdb::autovector.71", %"class.rocksdb::autovector.71", i64, i64, i64, %"class.std::vector.77", %"class.std::vector.16", i32, %"class.std::vector.82", i64, i64, i64, i64, i64, i64, i64, i64, i64, ptr, i32, i8, i8, i32, %"struct.rocksdb::OffpeakTimeOption", [8 x i8] }
%"class.rocksdb::autovector" = type { i64, [128 x i8], ptr, %"class.std::vector.36" }
%"class.std::vector.36" = type { %"struct.std::_Vector_base.37" }
%"struct.std::_Vector_base.37" = type { %"struct.std::_Vector_base<rocksdb::LevelFilesBrief, std::allocator<rocksdb::LevelFilesBrief>>::_Vector_impl" }
%"struct.std::_Vector_base<rocksdb::LevelFilesBrief, std::allocator<rocksdb::LevelFilesBrief>>::_Vector_impl" = type { %"struct.std::_Vector_base<rocksdb::LevelFilesBrief, std::allocator<rocksdb::LevelFilesBrief>>::_Vector_impl_data" }
%"struct.std::_Vector_base<rocksdb::LevelFilesBrief, std::allocator<rocksdb::LevelFilesBrief>>::_Vector_impl_data" = type { ptr, ptr, ptr }
%"class.rocksdb::FileIndexer" = type { i64, ptr, %"class.rocksdb::autovector.41", ptr }
%"class.rocksdb::autovector.41" = type { i64, [128 x i8], ptr, %"class.std::vector.42" }
%"class.std::vector.42" = type { %"struct.std::_Vector_base.43" }
%"struct.std::_Vector_base.43" = type { %"struct.std::_Vector_base<rocksdb::FileIndexer::IndexLevel, std::allocator<rocksdb::FileIndexer::IndexLevel>>::_Vector_impl" }
%"struct.std::_Vector_base<rocksdb::FileIndexer::IndexLevel, std::allocator<rocksdb::FileIndexer::IndexLevel>>::_Vector_impl" = type { %"struct.std::_Vector_base<rocksdb::FileIndexer::IndexLevel, std::allocator<rocksdb::FileIndexer::IndexLevel>>::_Vector_impl_data" }
%"struct.std::_Vector_base<rocksdb::FileIndexer::IndexLevel, std::allocator<rocksdb::FileIndexer::IndexLevel>>::_Vector_impl_data" = type { ptr, ptr, ptr }
%"class.rocksdb::Arena" = type { %"class.rocksdb::Allocator", [8 x i8], [2048 x i8], i64, %"class.std::deque", %"class.std::deque.50", i64, ptr, ptr, i64, i64, i64, ptr }
%"class.rocksdb::Allocator" = type { ptr }
%"class.std::deque" = type { %"class.std::_Deque_base" }
%"class.std::_Deque_base" = type { %"struct.std::_Deque_base<std::unique_ptr<char[]>, std::allocator<std::unique_ptr<char[]>>>::_Deque_impl" }
%"struct.std::_Deque_base<std::unique_ptr<char[]>, std::allocator<std::unique_ptr<char[]>>>::_Deque_impl" = type { %"struct.std::_Deque_base<std::unique_ptr<char[]>, std::allocator<std::unique_ptr<char[]>>>::_Deque_impl_data" }
%"struct.std::_Deque_base<std::unique_ptr<char[]>, std::allocator<std::unique_ptr<char[]>>>::_Deque_impl_data" = type { ptr, i64, %"struct.std::_Deque_iterator", %"struct.std::_Deque_iterator" }
%"struct.std::_Deque_iterator" = type { ptr, ptr, ptr, ptr }
%"class.std::deque.50" = type { %"class.std::_Deque_base.51" }
%"class.std::_Deque_base.51" = type { %"struct.std::_Deque_base<rocksdb::MemMapping, std::allocator<rocksdb::MemMapping>>::_Deque_impl" }
%"struct.std::_Deque_base<rocksdb::MemMapping, std::allocator<rocksdb::MemMapping>>::_Deque_impl" = type { %"struct.std::_Deque_base<rocksdb::MemMapping, std::allocator<rocksdb::MemMapping>>::_Deque_impl_data" }
%"struct.std::_Deque_base<rocksdb::MemMapping, std::allocator<rocksdb::MemMapping>>::_Deque_impl_data" = type { ptr, i64, %"struct.std::_Deque_iterator.55", %"struct.std::_Deque_iterator.55" }
%"struct.std::_Deque_iterator.55" = type { ptr, ptr, ptr, ptr }
%"class.std::unordered_map" = type { %"class.std::_Hashtable" }
%"class.std::_Hashtable" = type { ptr, i64, %"struct.std::__detail::_Hash_node_base", i64, %"struct.std::__detail::_Prime_rehash_policy", ptr }
%"struct.std::__detail::_Hash_node_base" = type { ptr }
%"struct.std::__detail::_Prime_rehash_policy" = type { float, i64 }
%"class.std::vector.61" = type { %"struct.std::_Vector_base.62" }
%"struct.std::_Vector_base.62" = type { %"struct.std::_Vector_base<std::shared_ptr<rocksdb::BlobFileMetaData>, std::allocator<std::shared_ptr<rocksdb::BlobFileMetaData>>>::_Vector_impl" }
%"struct.std::_Vector_base<std::shared_ptr<rocksdb::BlobFileMetaData>, std::allocator<std::shared_ptr<rocksdb::BlobFileMetaData>>>::_Vector_impl" = type { %"struct.std::_Vector_base<std::shared_ptr<rocksdb::BlobFileMetaData>, std::allocator<std::shared_ptr<rocksdb::BlobFileMetaData>>>::_Vector_impl_data" }
%"struct.std::_Vector_base<std::shared_ptr<rocksdb::BlobFileMetaData>, std::allocator<std::shared_ptr<rocksdb::BlobFileMetaData>>>::_Vector_impl_data" = type { ptr, ptr, ptr }
%"class.std::vector.66" = type { %"struct.std::_Vector_base.67" }
%"struct.std::_Vector_base.67" = type { %"struct.std::_Vector_base<std::vector<int>, std::allocator<std::vector<int>>>::_Vector_impl" }
%"struct.std::_Vector_base<std::vector<int>, std::allocator<std::vector<int>>>::_Vector_impl" = type { %"struct.std::_Vector_base<std::vector<int>, std::allocator<std::vector<int>>>::_Vector_impl_data" }
%"struct.std::_Vector_base<std::vector<int>, std::allocator<std::vector<int>>>::_Vector_impl_data" = type { ptr, ptr, ptr }
%"class.rocksdb::autovector.71" = type { i64, [128 x i8], ptr, %"class.std::vector.72" }
%"class.std::vector.72" = type { %"struct.std::_Vector_base.73" }
%"struct.std::_Vector_base.73" = type { %"struct.std::_Vector_base<std::pair<int, rocksdb::FileMetaData *>, std::allocator<std::pair<int, rocksdb::FileMetaData *>>>::_Vector_impl" }
%"struct.std::_Vector_base<std::pair<int, rocksdb::FileMetaData *>, std::allocator<std::pair<int, rocksdb::FileMetaData *>>>::_Vector_impl" = type { %"struct.std::_Vector_base<std::pair<int, rocksdb::FileMetaData *>, std::allocator<std::pair<int, rocksdb::FileMetaData *>>>::_Vector_impl_data" }
%"struct.std::_Vector_base<std::pair<int, rocksdb::FileMetaData *>, std::allocator<std::pair<int, rocksdb::FileMetaData *>>>::_Vector_impl_data" = type { ptr, ptr, ptr }
%"class.std::vector.77" = type { %"struct.std::_Vector_base.78" }
%"struct.std::_Vector_base.78" = type { %"struct.std::_Vector_base<double, std::allocator<double>>::_Vector_impl" }
%"struct.std::_Vector_base<double, std::allocator<double>>::_Vector_impl" = type { %"struct.std::_Vector_base<double, std::allocator<double>>::_Vector_impl_data" }
%"struct.std::_Vector_base<double, std::allocator<double>>::_Vector_impl_data" = type { ptr, ptr, ptr }
%"class.std::vector.82" = type { %"struct.std::_Vector_base.83" }
%"struct.std::_Vector_base.83" = type { %"struct.std::_Vector_base<rocksdb::InternalKey, std::allocator<rocksdb::InternalKey>>::_Vector_impl" }
%"struct.std::_Vector_base<rocksdb::InternalKey, std::allocator<rocksdb::InternalKey>>::_Vector_impl" = type { %"struct.std::_Vector_base<rocksdb::InternalKey, std::allocator<rocksdb::InternalKey>>::_Vector_impl_data" }
%"struct.std::_Vector_base<rocksdb::InternalKey, std::allocator<rocksdb::InternalKey>>::_Vector_impl_data" = type { ptr, ptr, ptr }
%"struct.rocksdb::OffpeakTimeOption" = type { %"class.std::__cxx11::basic_string", i32, i32 }

; Function Attrs: mustprogress nounwind uwtable
define linkonce_odr noundef i32 @_ZNK7rocksdb18VersionStorageInfo20num_non_empty_levelsEv(ptr noundef nonnull align 16 dereferenceable(4120) %0) #5 comdat align 2 {
  %2 = alloca ptr, align 8
  store ptr %0, ptr %2, align 8, !tbaa !107
  %3 = load ptr, ptr %2, align 8
  %4 = getelementptr inbounds nuw %"class.rocksdb::VersionStorageInfo", ptr %3, i32 0, i32 3
  %5 = load i32, ptr %4, align 4, !tbaa !150
  ret i32 %5
}

; Function Attrs: mustprogress uwtable
define void @_ZN7rocksdb21GetCompressionOptionsERKNS_16MutableCFOptionsEPKNS_18VersionStorageInfoEib(ptr dead_on_unwind noalias writable sret(%"struct.rocksdb::CompressionOptions") align 8 %0, ptr noundef nonnull align 8 dereferenceable(608) %1, ptr noundef %2, i32 noundef %3, i1 noundef zeroext %4) #4 {
  %6 = alloca ptr, align 8
  %7 = alloca ptr, align 8
  %8 = alloca i32, align 4
  %9 = alloca i8, align 1
  store ptr %1, ptr %6, align 8, !tbaa !109
  store ptr %2, ptr %7, align 8, !tbaa !107
  store i32 %3, ptr %8, align 4, !tbaa !15
  %10 = zext i1 %4 to i8
  store i8 %10, ptr %9, align 1, !tbaa !111
  %11 = load i8, ptr %9, align 1, !tbaa !111, !range !84, !noundef !85
  %12 = trunc i8 %11 to i1
  br i1 %12, label %16, label %13

13:                                               ; preds = %5
  %14 = load ptr, ptr %6, align 8, !tbaa !109
  %15 = getelementptr inbounds nuw %"struct.rocksdb::MutableCFOptions", ptr %14, i32 0, i32 46
  call void @llvm.memcpy.p0.p0.i64(ptr align 8 %0, ptr align 8 %15, i64 56, i1 false), !tbaa.struct !224
  br label %34

16:                                               ; preds = %5
  %17 = load i32, ptr %8, align 4, !tbaa !15
  %18 = load ptr, ptr %7, align 8, !tbaa !107
  %19 = call noundef i32 @_ZNK7rocksdb18VersionStorageInfo20num_non_empty_levelsEv(ptr noundef nonnull align 16 dereferenceable(4120) %18)
  %20 = sub nsw i32 %19, 1
  %21 = icmp sge i32 %17, %20
  br i1 %21, label %22, label %31

22:                                               ; preds = %16
  %23 = load ptr, ptr %6, align 8, !tbaa !109
  %24 = getelementptr inbounds nuw %"struct.rocksdb::MutableCFOptions", ptr %23, i32 0, i32 47
  %25 = getelementptr inbounds nuw %"struct.rocksdb::CompressionOptions", ptr %24, i32 0, i32 6
  %26 = load i8, ptr %25, align 8, !tbaa !225, !range !84, !noundef !85
  %27 = trunc i8 %26 to i1
  br i1 %27, label %28, label %31

28:                                               ; preds = %22
  %29 = load ptr, ptr %6, align 8, !tbaa !109
  %30 = getelementptr inbounds nuw %"struct.rocksdb::MutableCFOptions", ptr %29, i32 0, i32 47
  call void @llvm.memcpy.p0.p0.i64(ptr align 8 %0, ptr align 8 %30, i64 56, i1 false), !tbaa.struct !224
  br label %34

31:                                               ; preds = %22, %16
  %32 = load ptr, ptr %6, align 8, !tbaa !109
  %33 = getelementptr inbounds nuw %"struct.rocksdb::MutableCFOptions", ptr %32, i32 0, i32 46
  call void @llvm.memcpy.p0.p0.i64(ptr align 8 %0, ptr align 8 %33, i64 56, i1 false), !tbaa.struct !224
  br label %34

34:                                               ; preds = %31, %28, %13
  ret void
}