; Function Attrs: mustprogress nofree norecurse nosync nounwind willreturn memory(argmem: readwrite) uwtable
define void @_ZN7rocksdb21GetCompressionOptionsERKNS_16MutableCFOptionsEPKNS_18VersionStorageInfoEib(ptr dead_on_unwind noalias writable writeonly sret(%"struct.rocksdb::CompressionOptions") align 8 captures(none) initializes((0, 56)) %0, ptr noundef nonnull readonly align 8 captures(none) dereferenceable(608) %1, ptr noundef readonly captures(none) %2, i32 noundef %3, i1 noundef zeroext %4) local_unnamed_addr #6 {
  br i1 %4, label %6, label %15

6:                                                ; preds = %5
  %7 = getelementptr inbounds nuw i8, ptr %2, i64 20
  %8 = load i32, ptr %7, align 4, !tbaa !91
  %9 = add nsw i32 %8, -1
  %.not = icmp slt i32 %3, %9
  br i1 %.not, label %14, label %10

10:                                               ; preds = %6
  %11 = getelementptr inbounds nuw i8, ptr %1, i64 488
  %12 = load i8, ptr %11, align 8, !tbaa !166, !range !38, !noundef !39
  %13 = trunc nuw i8 %12 to i1
  br i1 %13, label %15, label %14

14:                                               ; preds = %10, %6
  br label %15

15:                                               ; preds = %10, %5, %14
  %.sink6 = phi i64 [ 408, %14 ], [ 408, %5 ], [ 464, %10 ]
  %16 = getelementptr inbounds nuw i8, ptr %1, i64 %.sink6
  tail call void @llvm.memcpy.p0.p0.i64(ptr noundef nonnull align 8 dereferenceable(56) %0, ptr noundef nonnull align 8 dereferenceable(56) %16, i64 56, i1 false)
  ret void
}